; Function Attrs: inlinehint nounwind uwtable
define internal fastcc void @pmix_bfrops_base_tma_regattr_free(ptr noundef %0, i64 noundef %1, ptr noundef %2) unnamed_addr #4 {
  %.not = icmp eq ptr %0, null
  br i1 %.not, label %pmix_tma_free.exit, label %.preheader

.preheader:                                       ; preds = %3
  %.not35 = icmp eq i64 %1, 0
  br i1 %.not35, label %._crit_edge, label %.lr.ph

.lr.ph:                                           ; preds = %.preheader
  %.not.i.i = icmp eq ptr %2, null
  %4 = getelementptr inbounds nuw i8, ptr %2, i64 40
  br i1 %.not.i.i, label %.lr.ph.split.us, label %.lr.ph.split.split.split

.lr.ph.split.us:                                  ; preds = %.lr.ph, %pmix_bfrops_base_tma_regattr_destruct.exit.us
  %.010.us = phi i64 [ %15, %pmix_bfrops_base_tma_regattr_destruct.exit.us ], [ 0, %.lr.ph ]
  %5 = getelementptr inbounds nuw %struct.pmix_regattr_t, ptr %0, i64 %.010.us
  %6 = load ptr, ptr %5, align 8, !tbaa !263
  %.not.i9.us = icmp eq ptr %6, null
  br i1 %.not.i9.us, label %7, label %pmix_tma_free.exit.i.us

pmix_tma_free.exit.i.us:                          ; preds = %.lr.ph.split.us
  tail call void @free(ptr noundef nonnull %6) #15
  store ptr null, ptr %5, align 8, !tbaa !263
  br label %7

7:                                                ; preds = %pmix_tma_free.exit.i.us, %.lr.ph.split.us
  %8 = getelementptr inbounds nuw i8, ptr %5, i64 528
  %9 = load ptr, ptr %8, align 8, !tbaa !265
  %.not11.i.us = icmp eq ptr %9, null
  br i1 %.not11.i.us, label %pmix_bfrops_base_tma_regattr_destruct.exit.us, label %10

10:                                               ; preds = %7
  %11 = load ptr, ptr %9, align 8, !tbaa !79
  %.not12.i.i.us = icmp eq ptr %11, null
  br i1 %.not12.i.i.us, label %pmix_bfrops_base_tma_argv_free.exit.i.us, label %pmix_tma_free.exit11.us.i.i.us

pmix_tma_free.exit11.us.i.i.us:                   ; preds = %10, %pmix_tma_free.exit11.us.i.i.us
  %12 = phi ptr [ %14, %pmix_tma_free.exit11.us.i.i.us ], [ %11, %10 ]
  %.013.us.i.i.us = phi ptr [ %13, %pmix_tma_free.exit11.us.i.i.us ], [ %9, %10 ]
  tail call void @free(ptr noundef nonnull %12) #15
  %13 = getelementptr inbounds nuw i8, ptr %.013.us.i.i.us, i64 8
  %14 = load ptr, ptr %13, align 8, !tbaa !79
  %.not.us.i.i.us = icmp eq ptr %14, null
  br i1 %.not.us.i.i.us, label %pmix_bfrops_base_tma_argv_free.exit.i.us, label %pmix_tma_free.exit11.us.i.i.us, !llvm.loop !80

pmix_bfrops_base_tma_argv_free.exit.i.us:         ; preds = %pmix_tma_free.exit11.us.i.i.us, %10
  tail call void @free(ptr noundef nonnull %9) #15
  store ptr null, ptr %8, align 8, !tbaa !265
  br label %pmix_bfrops_base_tma_regattr_destruct.exit.us

pmix_bfrops_base_tma_regattr_destruct.exit.us:    ; preds = %pmix_bfrops_base_tma_argv_free.exit.i.us, %7
  %15 = add nuw i64 %.010.us, 1
  %exitcond37.not = icmp eq i64 %15, %1
  br i1 %exitcond37.not, label %._crit_edge, label %.lr.ph.split.us, !llvm.loop !266

._crit_edge:                                      ; preds = %pmix_bfrops_base_tma_regattr_destruct.exit, %pmix_bfrops_base_tma_regattr_destruct.exit.us, %.preheader
  %.not.i = icmp eq ptr %2, null
  br i1 %.not.i, label %19, label %16

16:                                               ; preds = %._crit_edge
  %17 = getelementptr inbounds nuw i8, ptr %2, i64 40
  %18 = load ptr, ptr %17, align 8, !tbaa !77
  tail call void %18(ptr noundef nonnull %2, ptr noundef nonnull %0) #15
  br label %pmix_tma_free.exit

19:                                               ; preds = %._crit_edge
  tail call void @free(ptr noundef nonnull %0) #15
  br label %pmix_tma_free.exit

.lr.ph.split.split.split:                         ; preds = %.lr.ph, %pmix_bfrops_base_tma_regattr_destruct.exit
  %.010 = phi i64 [ %33, %pmix_bfrops_base_tma_regattr_destruct.exit ], [ 0, %.lr.ph ]
  %20 = getelementptr inbounds nuw %struct.pmix_regattr_t, ptr %0, i64 %.010
  %21 = load ptr, ptr %20, align 8, !tbaa !263
  %.not.i9 = icmp eq ptr %21, null
  br i1 %.not.i9, label %23, label %pmix_tma_free.exit.i

pmix_tma_free.exit.i:                             ; preds = %.lr.ph.split.split.split
  %22 = load ptr, ptr %4, align 8, !tbaa !77
  tail call void %22(ptr noundef nonnull %2, ptr noundef nonnull %21) #15
  store ptr null, ptr %20, align 8, !tbaa !263
  br label %23

23:                                               ; preds = %pmix_tma_free.exit.i, %.lr.ph.split.split.split
  %24 = getelementptr inbounds nuw i8, ptr %20, i64 528
  %25 = load ptr, ptr %24, align 8, !tbaa !265
  %.not11.i = icmp eq ptr %25, null
  br i1 %.not11.i, label %pmix_bfrops_base_tma_regattr_destruct.exit, label %26

26:                                               ; preds = %23
  %27 = load ptr, ptr %25, align 8, !tbaa !79
  %.not12.i.i = icmp eq ptr %27, null
  br i1 %.not12.i.i, label %._crit_edge.thread.i.i, label %pmix_tma_free.exit11.i.i

._crit_edge.thread.i.i:                           ; preds = %pmix_tma_free.exit11.i.i, %26
  %28 = load ptr, ptr %4, align 8, !tbaa !77
  tail call void %28(ptr noundef nonnull %2, ptr noundef nonnull %25) #15
  store ptr null, ptr %24, align 8, !tbaa !265
  br label %pmix_bfrops_base_tma_regattr_destruct.exit

pmix_tma_free.exit11.i.i:                         ; preds = %26, %pmix_tma_free.exit11.i.i
  %29 = phi ptr [ %32, %pmix_tma_free.exit11.i.i ], [ %27, %26 ]
  %.013.i.i = phi ptr [ %31, %pmix_tma_free.exit11.i.i ], [ %25, %26 ]
  %30 = load ptr, ptr %4, align 8, !tbaa !77
  tail call void %30(ptr noundef nonnull %2, ptr noundef nonnull %29) #15
  %31 = getelementptr inbounds nuw i8, ptr %.013.i.i, i64 8
  %32 = load ptr, ptr %31, align 8, !tbaa !79
  %.not.i12.i = icmp eq ptr %32, null
  br i1 %.not.i12.i, label %._crit_edge.thread.i.i, label %pmix_tma_free.exit11.i.i, !llvm.loop !80

pmix_bfrops_base_tma_regattr_destruct.exit:       ; preds = %23, %._crit_edge.thread.i.i
  %33 = add nuw i64 %.010, 1
  %exitcond.not = icmp eq i64 %33, %1
  br i1 %exitcond.not, label %._crit_edge, label %.lr.ph.split.split.split, !llvm.loop !266

pmix_tma_free.exit:                               ; preds = %19, %16, %3
  ret void
}